target datalayout = "e-m:e-p270:32:32-p271:32:32-p272:64:64-i64:64-i128:128-f80:128-n8:16:32:64-S128"
target triple = "x86_64-unknown-linux-gnu"

%union.UElement = type { ptr }
%struct.UHashElement = type { i32, %union.UElement, %union.UElement }
%"class.icu_75::Hashtable" = type { ptr, %struct.UHashtable }
%struct.UHashtable = type { ptr, ptr, ptr, ptr, ptr, ptr, i32, i32, i32, i32, float, float, i8, i8 }

; Function Attrs: mustprogress nounwind uwtable
define linkonce_odr void @_ZN6icu_759HashtableD2Ev(ptr noundef nonnull align 8 dereferenceable(88) %this) unnamed_addr #0 comdat align 2 personality ptr @__gxx_personality_v0 {
entry:
  %this.addr = alloca ptr, align 8
  store ptr %this, ptr %this.addr, align 8
  %this1 = load ptr, ptr %this.addr, align 8
  %hash = getelementptr inbounds %"class.icu_75::Hashtable", ptr %this1, i32 0, i32 0
  %0 = load ptr, ptr %hash, align 8
  %cmp = icmp ne ptr %0, null
  br i1 %cmp, label %if.then, label %if.end

if.then:                                          ; preds = %entry
  %hash2 = getelementptr inbounds %"class.icu_75::Hashtable", ptr %this1, i32 0, i32 0
  %1 = load ptr, ptr %hash2, align 8
  invoke void @uhash_close_75(ptr noundef %1)
          to label %invoke.cont unwind label %terminate.lpad

invoke.cont:                                      ; preds = %if.then
  br label %if.end

if.end:                                           ; preds = %invoke.cont, %entry
  ret void

terminate.lpad:                                   ; preds = %if.then
  %2 = landingpad { ptr, i32 }
          catch ptr null
  %3 = extractvalue { ptr, i32 } %2, 0
  call void @__clang_call_terminate(ptr %3) #8
  unreachable
}

; Function Attrs: mustprogress uwtable
define linkonce_odr noundef ptr @_ZNK6icu_759Hashtable11nextElementERi(ptr noundef nonnull align 8 dereferenceable(88) %this, ptr noundef nonnull align 4 dereferenceable(4) %pos) #1 comdat align 2 {
entry:
  %this.addr = alloca ptr, align 8
  %pos.addr = alloca ptr, align 8
  store ptr %this, ptr %this.addr, align 8
  store ptr %pos, ptr %pos.addr, align 8
  %this1 = load ptr, ptr %this.addr, align 8
  %hash = getelementptr inbounds %"class.icu_75::Hashtable", ptr %this1, i32 0, i32 0
  %0 = load ptr, ptr %hash, align 8
  %1 = load ptr, ptr %pos.addr, align 8
  %call = call ptr @uhash_nextElement_75(ptr noundef %0, ptr noundef %1)
  ret ptr %call
}

; Function Attrs: mustprogress uwtable
define void @_ZN6icu_7518CurrencyPluralInfo10deleteHashEPNS_9HashtableE(ptr noundef nonnull align 8 dereferenceable(36) %this, ptr noundef %hTable) #1 align 2 {
entry:
  %this.addr = alloca ptr, align 8
  %hTable.addr = alloca ptr, align 8
  %pos = alloca i32, align 4
  %element = alloca ptr, align 8
  %valueTok = alloca %union.UElement, align 8
  %value3 = alloca ptr, align 8
  store ptr %this, ptr %this.addr, align 8
  store ptr %hTable, ptr %hTable.addr, align 8
  %0 = load ptr, ptr %hTable.addr, align 8
  %cmp = icmp eq ptr %0, null
  br i1 %cmp, label %if.then, label %if.end

if.then:                                          ; preds = %entry
  br label %return

if.end:                                           ; preds = %entry
  store i32 -1, ptr %pos, align 4
  store ptr null, ptr %element, align 8
  br label %while.cond

while.cond:                                       ; preds = %delete.end, %if.end
  %1 = load ptr, ptr %hTable.addr, align 8
  %call = call noundef ptr @_ZNK6icu_759Hashtable11nextElementERi(ptr noundef nonnull align 8 dereferenceable(88) %1, ptr noundef nonnull align 4 dereferenceable(4) %pos)
  store ptr %call, ptr %element, align 8
  %cmp2 = icmp ne ptr %call, null
  br i1 %cmp2, label %while.body, label %while.end

while.body:                                       ; preds = %while.cond
  %2 = load ptr, ptr %element, align 8
  %value = getelementptr inbounds %struct.UHashElement, ptr %2, i32 0, i32 1
  call void @llvm.memcpy.p0.p0.i64(ptr align 8 %valueTok, ptr align 8 %value, i64 8, i1 false)
  %3 = load ptr, ptr %valueTok, align 8
  store ptr %3, ptr %value3, align 8
  %4 = load ptr, ptr %value3, align 8
  %isnull = icmp eq ptr %4, null
  br i1 %isnull, label %delete.end, label %delete.notnull

delete.notnull:                                   ; preds = %while.body
  %vtable = load ptr, ptr %4, align 8
  %vfn = getelementptr inbounds ptr, ptr %vtable, i64 1
  %5 = load ptr, ptr %vfn, align 8
  call void %5(ptr noundef nonnull align 8 dereferenceable(64) %4) #7
  br label %delete.end

delete.end:                                       ; preds = %delete.notnull, %while.body
  br label %while.cond, !llvm.loop !4

while.end:                                        ; preds = %while.cond
  %6 = load ptr, ptr %hTable.addr, align 8
  %isnull4 = icmp eq ptr %6, null
  br i1 %isnull4, label %delete.end6, label %delete.notnull5

delete.notnull5:                                  ; preds = %while.end
  call void @_ZN6icu_759HashtableD2Ev(ptr noundef nonnull align 8 dereferenceable(88) %6) #7
  call void @_ZN6icu_757UMemorydlEPv(ptr noundef %6) #7
  br label %delete.end6

delete.end6:                                      ; preds = %delete.notnull5, %while.end
  store ptr null, ptr %hTable.addr, align 8
  br label %return

return:                                           ; preds = %delete.end6, %if.then
  ret void
}