; Function Attrs: mustprogress uwtable
define void @_ZN6icu_7518CurrencyPluralInfo10deleteHashEPNS_9HashtableE(ptr nocapture nonnull readnone align 8 %this, ptr noundef %hTable) local_unnamed_addr #1 align 2 personality ptr @__gxx_personality_v0 {
entry:
  %pos = alloca i32, align 4
  %cmp = icmp eq ptr %hTable, null
  br i1 %cmp, label %return, label %if.end

if.end:                                           ; preds = %entry
  store i32 -1, ptr %pos, align 4
  %0 = load ptr, ptr %hTable, align 8
  %call.i3 = call noundef ptr @uhash_nextElement_75(ptr noundef %0, ptr noundef nonnull %pos)
  %cmp2.not4 = icmp eq ptr %call.i3, null
  br i1 %cmp2.not4, label %delete.notnull5, label %while.body

while.body:                                       ; preds = %if.end, %delete.end
  %call.i5 = phi ptr [ %call.i, %delete.end ], [ %call.i3, %if.end ]
  %value = getelementptr inbounds i8, ptr %call.i5, i64 8
  %valueTok.sroa.0.0.copyload = load ptr, ptr %value, align 8
  %isnull = icmp eq ptr %valueTok.sroa.0.0.copyload, null
  br i1 %isnull, label %delete.end, label %delete.notnull

delete.notnull:                                   ; preds = %while.body
  %vtable = load ptr, ptr %valueTok.sroa.0.0.copyload, align 8
  %vfn = getelementptr inbounds i8, ptr %vtable, i64 8
  %1 = load ptr, ptr %vfn, align 8
  call void %1(ptr noundef nonnull align 8 dereferenceable(64) %valueTok.sroa.0.0.copyload) #10
  br label %delete.end

delete.end:                                       ; preds = %delete.notnull, %while.body
  %2 = load ptr, ptr %hTable, align 8
  %call.i = call noundef ptr @uhash_nextElement_75(ptr noundef %2, ptr noundef nonnull %pos)
  %cmp2.not = icmp eq ptr %call.i, null
  br i1 %cmp2.not, label %delete.notnull5, label %while.body, !llvm.loop !4

delete.notnull5:                                  ; preds = %delete.end, %if.end
  %3 = load ptr, ptr %hTable, align 8
  %cmp.not.i = icmp eq ptr %3, null
  br i1 %cmp.not.i, label %_ZN6icu_759HashtableD2Ev.exit, label %if.then.i

if.then.i:                                        ; preds = %delete.notnull5
  invoke void @uhash_close_75(ptr noundef nonnull %3)
          to label %_ZN6icu_759HashtableD2Ev.exit unwind label %terminate.lpad.i

terminate.lpad.i:                                 ; preds = %if.then.i
  %4 = landingpad { ptr, i32 }
          catch ptr null
  %5 = extractvalue { ptr, i32 } %4, 0
  call void @__clang_call_terminate(ptr %5) #11
  unreachable

_ZN6icu_759HashtableD2Ev.exit:                    ; preds = %delete.notnull5, %if.then.i
  call void @_ZN6icu_757UMemorydlEPv(ptr noundef nonnull %hTable) #10
  br label %return

return:                                           ; preds = %entry, %_ZN6icu_759HashtableD2Ev.exit
  ret void
}